target datalayout = "e-m:e-p270:32:32-p271:32:32-p272:64:64-i64:64-i128:128-f80:128-n8:16:32:64-S128"
target triple = "x86_64-pc-linux-gnu"

%class.JvmtiEnvBase = type <{ %struct._jvmtiEnv, i32, i32, ptr, i8, [7 x i8], ptr, %struct.jvmtiEventCallbacks, %struct.jvmtiExtEventCallbacks, ptr, %class.JvmtiEnvEventEnable, %struct.jvmtiCapabilities, %struct.jvmtiCapabilities, i8, [7 x i8], ptr, i32, [4 x i8] }>
%struct._jvmtiEnv = type { ptr }
%struct.jvmtiEventCallbacks = type { ptr, ptr, ptr, ptr, ptr, ptr, ptr, ptr, ptr, ptr, ptr, ptr, ptr, ptr, ptr, ptr, ptr, ptr, ptr, ptr, ptr, ptr, ptr, ptr, ptr, ptr, ptr, ptr, ptr, ptr, ptr, ptr, ptr, ptr, ptr, ptr, ptr, ptr, ptr }
%struct.jvmtiExtEventCallbacks = type { ptr, ptr, ptr }
%class.JvmtiEnvEventEnable = type { %class.JvmtiEventEnabled, %class.JvmtiEventEnabled, %class.JvmtiEventEnabled }
%class.JvmtiEventEnabled = type { i64 }
%struct.jvmtiCapabilities = type { i64, i64 }
%"struct.Atomic::LoadImpl" = type { i8 }
%"struct.Atomic::PlatformOrderedLoad" = type { i8 }
%class.ScopedFence = type { ptr }
%"struct.Atomic::LoadImpl.26" = type { i8 }
%"struct.Atomic::PlatformLoad" = type { i8 }

@_ZN12JvmtiEnvBase15_needs_clean_upE = hidden global i8 0, align 1

; Function Attrs: mustprogress nounwind uwtable
define internal void @_ZL16compiler_barrierv() #1 {
  call void asm sideeffect "", "~{memory},~{dirflag},~{fpsr},~{flags}"() #10, !srcloc !53
  ret void
}

; Function Attrs: mustprogress nounwind uwtable
define linkonce_odr hidden void @_ZN11OrderAccess7acquireEv() #1 comdat align 2 {
  call void @_ZL16compiler_barrierv()
  ret void
}

; Function Attrs: mustprogress nounwind uwtable
define linkonce_odr hidden void @_ZN18ScopedFenceGeneralIL15ScopedFenceType0EE7postfixEv(ptr noundef nonnull align 1 dereferenceable(1) %0) #1 comdat align 2 {
  %2 = alloca ptr, align 8
  store ptr %0, ptr %2, align 8
  call void @_ZN11OrderAccess7acquireEv()
  ret void
}

; Function Attrs: mustprogress nounwind uwtable
define linkonce_odr hidden noundef ptr @_ZNK6Atomic12PlatformLoadILm8EEclIP11JvmtiTagMapEET_PVKS5_(ptr noundef nonnull align 1 dereferenceable(1) %0, ptr noundef %1) #1 comdat align 2 {
  %3 = alloca ptr, align 8
  %4 = alloca ptr, align 8
  store ptr %0, ptr %3, align 8
  store ptr %1, ptr %4, align 8
  %5 = load ptr, ptr %4, align 8
  %6 = load volatile ptr, ptr %5, align 8
  ret ptr %6
}

; Function Attrs: mustprogress nounwind uwtable
define linkonce_odr hidden void @_ZN18ScopedFenceGeneralIL15ScopedFenceType0EE6prefixEv(ptr noundef nonnull align 1 dereferenceable(1) %0) #1 comdat align 2 {
  %2 = alloca ptr, align 8
  store ptr %0, ptr %2, align 8
  ret void
}

; Function Attrs: mustprogress nounwind uwtable
define internal noundef i64 @_ZL14alignment_maskImTnNSt9enable_ifIXcvbsr3std11is_integralIT_EE5valueEiE4typeELi0EES1_S1_(i64 noundef %0) #1 {
  %2 = alloca i64, align 8
  store i64 %0, ptr %2, align 8
  %3 = load i64, ptr %2, align 8
  %4 = sub i64 %3, 1
  ret i64 %4
}

; Function Attrs: mustprogress nounwind uwtable
define linkonce_odr hidden void @_ZN11ScopedFenceIL15ScopedFenceType0EE7postfixEv(ptr noundef nonnull align 8 dereferenceable(8) %0) #1 comdat align 2 {
  %2 = alloca ptr, align 8
  store ptr %0, ptr %2, align 8
  %3 = load ptr, ptr %2, align 8
  call void @_ZN18ScopedFenceGeneralIL15ScopedFenceType0EE7postfixEv(ptr noundef nonnull align 1 dereferenceable(1) %3)
  ret void
}

; Function Attrs: mustprogress nounwind uwtable
define linkonce_odr hidden noundef ptr @_ZNK6Atomic8LoadImplIP11JvmtiTagMapNS_12PlatformLoadILm8EEEvEclEPVKS2_(ptr noundef nonnull align 1 dereferenceable(1) %0, ptr noundef %1) #1 comdat align 2 {
  %3 = alloca ptr, align 8
  %4 = alloca ptr, align 8
  %5 = alloca %"struct.Atomic::PlatformLoad", align 1
  store ptr %0, ptr %3, align 8
  store ptr %1, ptr %4, align 8
  %6 = load ptr, ptr %4, align 8
  %7 = call noundef ptr @_ZNK6Atomic12PlatformLoadILm8EEclIP11JvmtiTagMapEET_PVKS5_(ptr noundef nonnull align 1 dereferenceable(1) %5, ptr noundef %6)
  ret ptr %7
}

; Function Attrs: mustprogress nounwind uwtable
define linkonce_odr hidden void @_ZN11ScopedFenceIL15ScopedFenceType0EE6prefixEv(ptr noundef nonnull align 8 dereferenceable(8) %0) #1 comdat align 2 {
  %2 = alloca ptr, align 8
  store ptr %0, ptr %2, align 8
  %3 = load ptr, ptr %2, align 8
  call void @_ZN18ScopedFenceGeneralIL15ScopedFenceType0EE6prefixEv(ptr noundef nonnull align 1 dereferenceable(1) %3)
  ret void
}

; Function Attrs: mustprogress nounwind uwtable
define linkonce_odr hidden noundef zeroext i1 @_Z10is_alignedImmTnNSt9enable_ifIXcvbsr3std11is_integralIT_EE5valueEiE4typeELi0EEbS1_T0_(i64 noundef %0, i64 noundef %1) #1 comdat {
  %3 = alloca i64, align 8
  %4 = alloca i64, align 8
  store i64 %0, ptr %3, align 8
  store i64 %1, ptr %4, align 8
  %5 = load i64, ptr %3, align 8
  %6 = load i64, ptr %4, align 8
  %7 = call noundef i64 @_ZL14alignment_maskImTnNSt9enable_ifIXcvbsr3std11is_integralIT_EE5valueEiE4typeELi0EES1_S1_(i64 noundef %6)
  %8 = and i64 %5, %7
  %9 = icmp eq i64 %8, 0
  ret i1 %9
}

; Function Attrs: mustprogress nounwind uwtable
define linkonce_odr hidden void @_ZN11ScopedFenceIL15ScopedFenceType0EED2Ev(ptr noundef nonnull align 8 dereferenceable(8) %0) unnamed_addr #1 comdat align 2 {
  %2 = alloca ptr, align 8
  store ptr %0, ptr %2, align 8
  %3 = load ptr, ptr %2, align 8
  call void @_ZN11ScopedFenceIL15ScopedFenceType0EE7postfixEv(ptr noundef nonnull align 8 dereferenceable(8) %3)
  ret void
}

; Function Attrs: mustprogress nounwind uwtable
define linkonce_odr hidden noundef ptr @_ZN6Atomic4loadIP11JvmtiTagMapEET_PVKS3_(ptr noundef %0) #1 comdat align 2 {
  %2 = alloca ptr, align 8
  %3 = alloca %"struct.Atomic::LoadImpl.26", align 1
  store ptr %0, ptr %2, align 8
  %4 = load ptr, ptr %2, align 8
  %5 = call noundef ptr @_ZNK6Atomic8LoadImplIP11JvmtiTagMapNS_12PlatformLoadILm8EEEvEclEPVKS2_(ptr noundef nonnull align 1 dereferenceable(1) %3, ptr noundef %4)
  ret ptr %5
}

; Function Attrs: mustprogress nounwind uwtable
define linkonce_odr hidden void @_ZN11ScopedFenceIL15ScopedFenceType0EEC2EPv(ptr noundef nonnull align 8 dereferenceable(8) %0, ptr noundef %1) unnamed_addr #1 comdat align 2 {
  %3 = alloca ptr, align 8
  %4 = alloca ptr, align 8
  store ptr %0, ptr %3, align 8
  store ptr %1, ptr %4, align 8
  %5 = load ptr, ptr %3, align 8
  %6 = getelementptr inbounds %class.ScopedFence, ptr %5, i32 0, i32 0
  %7 = load ptr, ptr %4, align 8
  store ptr %7, ptr %6, align 8
  call void @_ZN11ScopedFenceIL15ScopedFenceType0EE6prefixEv(ptr noundef nonnull align 8 dereferenceable(8) %5)
  ret void
}

; Function Attrs: mustprogress nounwind uwtable
define linkonce_odr hidden noundef zeroext i1 @_Z10is_alignedIKvmEbPT_T0_(ptr noundef %0, i64 noundef %1) #1 comdat {
  %3 = alloca ptr, align 8
  %4 = alloca i64, align 8
  store ptr %0, ptr %3, align 8
  store i64 %1, ptr %4, align 8
  %5 = load ptr, ptr %3, align 8
  %6 = ptrtoint ptr %5 to i64
  %7 = load i64, ptr %4, align 8
  %8 = call noundef zeroext i1 @_Z10is_alignedImmTnNSt9enable_ifIXcvbsr3std11is_integralIT_EE5valueEiE4typeELi0EEbS1_T0_(i64 noundef %6, i64 noundef %7)
  ret i1 %8
}

; Function Attrs: mustprogress nounwind uwtable
define linkonce_odr hidden noundef ptr @_ZNK6Atomic19PlatformOrderedLoadILm8EL15ScopedFenceType0EEclIP11JvmtiTagMapEET_PVKS6_(ptr noundef nonnull align 1 dereferenceable(1) %0, ptr noundef %1) #1 comdat align 2 {
  %3 = alloca ptr, align 8
  %4 = alloca ptr, align 8
  %5 = alloca %class.ScopedFence, align 8
  store ptr %0, ptr %3, align 8
  store ptr %1, ptr %4, align 8
  %6 = load ptr, ptr %4, align 8
  call void @_ZN11ScopedFenceIL15ScopedFenceType0EEC2EPv(ptr noundef nonnull align 8 dereferenceable(8) %5, ptr noundef %6)
  %7 = load ptr, ptr %4, align 8
  %8 = call noundef ptr @_ZN6Atomic4loadIP11JvmtiTagMapEET_PVKS3_(ptr noundef %7)
  call void @_ZN11ScopedFenceIL15ScopedFenceType0EED2Ev(ptr noundef nonnull align 8 dereferenceable(8) %5) #10
  ret ptr %8
}

; Function Attrs: mustprogress nounwind uwtable
define linkonce_odr hidden noundef i32 @_ZN5Bytes10get_nativeIjEET_PKv(ptr noundef %0) #1 comdat align 2 {
  %2 = alloca ptr, align 8
  %3 = alloca i32, align 4
  store ptr %0, ptr %2, align 8
  %4 = load ptr, ptr %2, align 8
  %5 = call noundef zeroext i1 @_Z10is_alignedIKvmEbPT_T0_(ptr noundef %4, i64 noundef 4)
  br i1 %5, label %6, label %9

6:                                                ; preds = %1
  %7 = load ptr, ptr %2, align 8
  %8 = load i32, ptr %7, align 4
  store i32 %8, ptr %3, align 4
  br label %11

9:                                                ; preds = %1
  %10 = load ptr, ptr %2, align 8
  call void @llvm.memcpy.p0.p0.i64(ptr align 4 %3, ptr align 1 %10, i64 4, i1 false)
  br label %11

11:                                               ; preds = %9, %6
  %12 = load i32, ptr %3, align 4
  ret i32 %12
}

; Function Attrs: mustprogress nounwind uwtable
define linkonce_odr hidden noundef ptr @_ZNK6Atomic8LoadImplIP11JvmtiTagMapNS_19PlatformOrderedLoadILm8EL15ScopedFenceType0EEEvEclEPVKS2_(ptr noundef nonnull align 1 dereferenceable(1) %0, ptr noundef %1) #1 comdat align 2 {
  %3 = alloca ptr, align 8
  %4 = alloca ptr, align 8
  %5 = alloca %"struct.Atomic::PlatformOrderedLoad", align 1
  store ptr %0, ptr %3, align 8
  store ptr %1, ptr %4, align 8
  %6 = load ptr, ptr %4, align 8
  %7 = call noundef ptr @_ZNK6Atomic19PlatformOrderedLoadILm8EL15ScopedFenceType0EEclIP11JvmtiTagMapEET_PVKS6_(ptr noundef nonnull align 1 dereferenceable(1) %5, ptr noundef %6)
  ret ptr %7
}

; Function Attrs: mustprogress nounwind uwtable
define linkonce_odr hidden noundef i32 @_ZN5Bytes13get_native_u4EPh(ptr noundef %0) #1 comdat align 2 {
  %2 = alloca ptr, align 8
  store ptr %0, ptr %2, align 8
  %3 = load ptr, ptr %2, align 8
  %4 = call noundef i32 @_ZN5Bytes10get_nativeIjEET_PKv(ptr noundef %3)
  ret i32 %4
}

; Function Attrs: mustprogress nounwind uwtable
define linkonce_odr hidden noundef ptr @_ZN6Atomic12load_acquireIP11JvmtiTagMapEET_PVKS3_(ptr noundef %0) #1 comdat align 2 {
  %2 = alloca ptr, align 8
  %3 = alloca %"struct.Atomic::LoadImpl", align 1
  store ptr %0, ptr %2, align 8
  %4 = load ptr, ptr %2, align 8
  %5 = call noundef ptr @_ZNK6Atomic8LoadImplIP11JvmtiTagMapNS_19PlatformOrderedLoadILm8EL15ScopedFenceType0EEEvEclEPVKS2_(ptr noundef nonnull align 1 dereferenceable(1) %3, ptr noundef %4)
  ret ptr %5
}

; Function Attrs: mustprogress nounwind uwtable
define hidden noundef zeroext i1 @_ZN12JvmtiEnvBase8is_validEv(ptr noundef nonnull align 8 dereferenceable(460) %0) #1 align 2 {
  %2 = alloca ptr, align 8
  %3 = alloca i64, align 8
  store ptr %0, ptr %2, align 8
  %4 = load ptr, ptr %2, align 8
  store i64 0, ptr %3, align 8
  %5 = getelementptr inbounds %class.JvmtiEnvBase, ptr %4, i32 0, i32 1
  %6 = call noundef i32 @_ZN5Bytes13get_native_u4EPh(ptr noundef %5)
  %7 = zext i32 %6 to i64
  store i64 %7, ptr %3, align 8
  %8 = load i64, ptr %3, align 8
  %9 = icmp eq i64 %8, 29166
  ret i1 %9
}

; Function Attrs: mustprogress nounwind uwtable
define linkonce_odr hidden noundef ptr @_ZN12JvmtiEnvBase26get_native_method_prefixesEv(ptr noundef nonnull align 8 dereferenceable(460) %0) #1 comdat align 2 {
  %2 = alloca ptr, align 8
  store ptr %0, ptr %2, align 8
  %3 = load ptr, ptr %2, align 8
  %4 = getelementptr inbounds %class.JvmtiEnvBase, ptr %3, i32 0, i32 15
  %5 = load ptr, ptr %4, align 8
  ret ptr %5
}

; Function Attrs: mustprogress nounwind uwtable
define linkonce_odr hidden noundef i32 @_ZN12JvmtiEnvBase30get_native_method_prefix_countEv(ptr noundef nonnull align 8 dereferenceable(460) %0) #1 comdat align 2 {
  %2 = alloca ptr, align 8
  store ptr %0, ptr %2, align 8
  %3 = load ptr, ptr %2, align 8
  %4 = getelementptr inbounds %class.JvmtiEnvBase, ptr %3, i32 0, i32 16
  %5 = load i32, ptr %4, align 8
  ret i32 %5
}

; Function Attrs: mustprogress nounwind uwtable
define linkonce_odr hidden noundef ptr @_ZN12JvmtiEnvBase15tag_map_acquireEv(ptr noundef nonnull align 8 dereferenceable(460) %0) #1 comdat align 2 {
  %2 = alloca ptr, align 8
  store ptr %0, ptr %2, align 8
  %3 = load ptr, ptr %2, align 8
  %4 = getelementptr inbounds %class.JvmtiEnvBase, ptr %3, i32 0, i32 9
  %5 = call noundef ptr @_ZN6Atomic12load_acquireIP11JvmtiTagMapEET_PVKS3_(ptr noundef %4)
  ret ptr %5
}

; Function Attrs: mustprogress nounwind uwtable
define hidden noundef i32 @_ZN12JvmtiEnvBase26set_native_method_prefixesEiPPc(ptr noundef nonnull align 8 dereferenceable(460) %0, i32 noundef %1, ptr noundef %2) #1 align 2 {
  %4 = alloca i32, align 4
  %5 = alloca ptr, align 8
  %6 = alloca i32, align 4
  %7 = alloca ptr, align 8
  %8 = alloca i32, align 4
  %9 = alloca ptr, align 8
  %10 = alloca ptr, align 8
  %11 = alloca i32, align 4
  %12 = alloca ptr, align 8
  %13 = alloca i32, align 4
  %14 = alloca i32, align 4
  %15 = alloca i32, align 4
  store ptr %0, ptr %5, align 8
  store i32 %1, ptr %6, align 4
  store ptr %2, ptr %7, align 8
  %16 = load ptr, ptr %5, align 8
  %17 = call noundef i32 @_ZN12JvmtiEnvBase30get_native_method_prefix_countEv(ptr noundef nonnull align 8 dereferenceable(460) %16)
  store i32 %17, ptr %8, align 4
  %18 = call noundef ptr @_ZN12JvmtiEnvBase26get_native_method_prefixesEv(ptr noundef nonnull align 8 dereferenceable(460) %16)
  store ptr %18, ptr %9, align 8
  %19 = load i32, ptr %6, align 4
  %20 = icmp eq i32 %19, 0
  br i1 %20, label %23, label %21

21:                                               ; preds = %3
  %22 = call noundef zeroext i1 @_ZN12JvmtiEnvBase8is_validEv(ptr noundef nonnull align 8 dereferenceable(460) %16)
  br i1 %22, label %26, label %23

23:                                               ; preds = %21, %3
  %24 = getelementptr inbounds %class.JvmtiEnvBase, ptr %16, i32 0, i32 16
  store i32 0, ptr %24, align 8
  %25 = getelementptr inbounds %class.JvmtiEnvBase, ptr %16, i32 0, i32 15
  store ptr null, ptr %25, align 8
  br label %104

26:                                               ; preds = %21
  %27 = load i32, ptr %6, align 4
  %28 = sext i32 %27 to i64
  %29 = mul i64 %28, 8
  %30 = call noundef ptr @_ZN2os6mallocEm8MEMFLAGS(i64 noundef %29, i8 noundef zeroext 9)
  store ptr %30, ptr %10, align 8
  %31 = load ptr, ptr %10, align 8
  %32 = icmp eq ptr %31, null
  br i1 %32, label %33, label %34

33:                                               ; preds = %26
  store i32 110, ptr %4, align 4
  br label %124

34:                                               ; preds = %26
  store i32 0, ptr %11, align 4
  br label %35

35:                                               ; preds = %96, %34
  %36 = load i32, ptr %11, align 4
  %37 = load i32, ptr %6, align 4
  %38 = icmp slt i32 %36, %37
  br i1 %38, label %39, label %99

39:                                               ; preds = %35
  %40 = load ptr, ptr %7, align 8
  %41 = load i32, ptr %11, align 4
  %42 = sext i32 %41 to i64
  %43 = getelementptr inbounds ptr, ptr %40, i64 %42
  %44 = load ptr, ptr %43, align 8
  store ptr %44, ptr %12, align 8
  %45 = load ptr, ptr %12, align 8
  %46 = icmp eq ptr %45, null
  br i1 %46, label %47, label %64

47:                                               ; preds = %39
  store i32 0, ptr %13, align 4
  br label %48

48:                                               ; preds = %59, %47
  %49 = load i32, ptr %13, align 4
  %50 = load i32, ptr %11, align 4
  %51 = sub nsw i32 %50, 1
  %52 = icmp slt i32 %49, %51
  br i1 %52, label %53, label %62

53:                                               ; preds = %48
  %54 = load ptr, ptr %10, align 8
  %55 = load i32, ptr %13, align 4
  %56 = sext i32 %55 to i64
  %57 = getelementptr inbounds ptr, ptr %54, i64 %56
  %58 = load ptr, ptr %57, align 8
  call void @_ZN2os4freeEPv(ptr noundef %58)
  br label %59

59:                                               ; preds = %53
  %60 = load i32, ptr %13, align 4
  %61 = add nsw i32 %60, 1
  store i32 %61, ptr %13, align 4
  br label %48, !llvm.loop !8

62:                                               ; preds = %48
  %63 = load ptr, ptr %10, align 8
  call void @_ZN2os4freeEPv(ptr noundef %63)
  store i32 100, ptr %4, align 4
  br label %124

64:                                               ; preds = %39
  %65 = load ptr, ptr %7, align 8
  %66 = load i32, ptr %11, align 4
  %67 = sext i32 %66 to i64
  %68 = getelementptr inbounds ptr, ptr %65, i64 %67
  %69 = load ptr, ptr %68, align 8
  %70 = call noundef ptr @_ZN2os6strdupEPKc8MEMFLAGS(ptr noundef %69, i8 noundef zeroext 9)
  store ptr %70, ptr %12, align 8
  %71 = load ptr, ptr %12, align 8
  %72 = icmp eq ptr %71, null
  br i1 %72, label %73, label %90

73:                                               ; preds = %64
  store i32 0, ptr %14, align 4
  br label %74

74:                                               ; preds = %85, %73
  %75 = load i32, ptr %14, align 4
  %76 = load i32, ptr %11, align 4
  %77 = sub nsw i32 %76, 1
  %78 = icmp slt i32 %75, %77
  br i1 %78, label %79, label %88

79:                                               ; preds = %74
  %80 = load ptr, ptr %10, align 8
  %81 = load i32, ptr %14, align 4
  %82 = sext i32 %81 to i64
  %83 = getelementptr inbounds ptr, ptr %80, i64 %82
  %84 = load ptr, ptr %83, align 8
  call void @_ZN2os4freeEPv(ptr noundef %84)
  br label %85

85:                                               ; preds = %79
  %86 = load i32, ptr %14, align 4
  %87 = add nsw i32 %86, 1
  store i32 %87, ptr %14, align 4
  br label %74, !llvm.loop !9

88:                                               ; preds = %74
  %89 = load ptr, ptr %10, align 8
  call void @_ZN2os4freeEPv(ptr noundef %89)
  store i32 110, ptr %4, align 4
  br label %124

90:                                               ; preds = %64
  %91 = load ptr, ptr %12, align 8
  %92 = load ptr, ptr %10, align 8
  %93 = load i32, ptr %11, align 4
  %94 = sext i32 %93 to i64
  %95 = getelementptr inbounds ptr, ptr %92, i64 %94
  store ptr %91, ptr %95, align 8
  br label %96

96:                                               ; preds = %90
  %97 = load i32, ptr %11, align 4
  %98 = add nsw i32 %97, 1
  store i32 %98, ptr %11, align 4
  br label %35, !llvm.loop !10

99:                                               ; preds = %35
  %100 = load i32, ptr %6, align 4
  %101 = getelementptr inbounds %class.JvmtiEnvBase, ptr %16, i32 0, i32 16
  store i32 %100, ptr %101, align 8
  %102 = load ptr, ptr %10, align 8
  %103 = getelementptr inbounds %class.JvmtiEnvBase, ptr %16, i32 0, i32 15
  store ptr %102, ptr %103, align 8
  br label %104

104:                                              ; preds = %99, %23
  %105 = load i32, ptr %8, align 4
  %106 = icmp ne i32 %105, 0
  br i1 %106, label %107, label %123

107:                                              ; preds = %104
  store i32 0, ptr %15, align 4
  br label %108

108:                                              ; preds = %118, %107
  %109 = load i32, ptr %15, align 4
  %110 = load i32, ptr %8, align 4
  %111 = icmp slt i32 %109, %110
  br i1 %111, label %112, label %121

112:                                              ; preds = %108
  %113 = load ptr, ptr %9, align 8
  %114 = load i32, ptr %15, align 4
  %115 = sext i32 %114 to i64
  %116 = getelementptr inbounds ptr, ptr %113, i64 %115
  %117 = load ptr, ptr %116, align 8
  call void @_ZN2os4freeEPv(ptr noundef %117)
  br label %118

118:                                              ; preds = %112
  %119 = load i32, ptr %15, align 4
  %120 = add nsw i32 %119, 1
  store i32 %120, ptr %15, align 4
  br label %108, !llvm.loop !11

121:                                              ; preds = %108
  %122 = load ptr, ptr %9, align 8
  call void @_ZN2os4freeEPv(ptr noundef %122)
  br label %123

123:                                              ; preds = %121, %104
  store i32 0, ptr %4, align 4
  br label %124

124:                                              ; preds = %123, %88, %62, %33
  %125 = load i32, ptr %4, align 4
  ret i32 %125
}

; Function Attrs: mustprogress nounwind uwtable
define linkonce_odr hidden noundef ptr @_ZN12JvmtiEnvBase16get_capabilitiesEv(ptr noundef nonnull align 8 dereferenceable(460) %0) #1 comdat align 2 {
  %2 = alloca ptr, align 8
  store ptr %0, ptr %2, align 8
  %3 = load ptr, ptr %2, align 8
  %4 = getelementptr inbounds %class.JvmtiEnvBase, ptr %3, i32 0, i32 11
  ret ptr %4
}

; Function Attrs: mustprogress nounwind uwtable
define hidden void @_ZN12JvmtiEnvBase11env_disposeEv(ptr noundef nonnull align 8 dereferenceable(460) %0) #1 align 2 {
  %2 = alloca ptr, align 8
  %3 = alloca ptr, align 8
  %4 = alloca ptr, align 8
  store ptr %0, ptr %2, align 8
  %5 = load ptr, ptr %2, align 8
  %6 = getelementptr inbounds %class.JvmtiEnvBase, ptr %5, i32 0, i32 1
  store i32 57084, ptr %6, align 8
  %7 = call noundef ptr @_ZN12JvmtiEnvBase16get_capabilitiesEv(ptr noundef nonnull align 8 dereferenceable(460) %5)
  store ptr %7, ptr %3, align 8
  %8 = load ptr, ptr %3, align 8
  %9 = load ptr, ptr %3, align 8
  %10 = load ptr, ptr %3, align 8
  call void @_ZN23JvmtiManageCapabilities23relinquish_capabilitiesEPK17jvmtiCapabilitiesS2_PS0_(ptr noundef %8, ptr noundef %9, ptr noundef %10)
  %11 = call noundef i32 @_ZN12JvmtiEnvBase26set_native_method_prefixesEiPPc(ptr noundef nonnull align 8 dereferenceable(460) %5, i32 noundef 0, ptr noundef null)
  %12 = call noundef ptr @_ZN12JvmtiEnvBase15tag_map_acquireEv(ptr noundef nonnull align 8 dereferenceable(460) %5)
  store ptr %12, ptr %4, align 8
  %13 = load ptr, ptr %4, align 8
  %14 = icmp ne ptr %13, null
  br i1 %14, label %15, label %17

15:                                               ; preds = %1
  %16 = load ptr, ptr %4, align 8
  call void @_ZN11JvmtiTagMap5clearEv(ptr noundef nonnull align 8 dereferenceable(122) %16)
  br label %17

17:                                               ; preds = %15, %1
  store volatile i8 1, ptr @_ZN12JvmtiEnvBase15_needs_clean_upE, align 1
  ret void
}