; Function Attrs: mustprogress nounwind uwtable
define hidden void @_ZN12JvmtiEnvBase11env_disposeEv(ptr noundef nonnull align 8 dereferenceable(460) %0) local_unnamed_addr #0 align 2 {
  %2 = getelementptr inbounds i8, ptr %0, i64 8
  store i32 57084, ptr %2, align 8
  %3 = getelementptr inbounds i8, ptr %0, i64 408
  tail call void @_ZN23JvmtiManageCapabilities23relinquish_capabilitiesEPK17jvmtiCapabilitiesS2_PS0_(ptr noundef nonnull %3, ptr noundef nonnull %3, ptr noundef nonnull %3) #18
  %4 = getelementptr inbounds i8, ptr %0, i64 456
  %5 = load i32, ptr %4, align 8
  %6 = getelementptr inbounds i8, ptr %0, i64 448
  %7 = load ptr, ptr %6, align 8
  store i32 0, ptr %4, align 8
  store ptr null, ptr %6, align 8
  %.not.i = icmp eq i32 %5, 0
  br i1 %.not.i, label %_ZN12JvmtiEnvBase26set_native_method_prefixesEiPPc.exit, label %.preheader49.i

.preheader49.i:                                   ; preds = %1
  %8 = icmp sgt i32 %5, 0
  br i1 %8, label %.lr.ph55.preheader.i, label %._crit_edge.i

.lr.ph55.preheader.i:                             ; preds = %.preheader49.i
  %wide.trip.count68.i = zext nneg i32 %5 to i64
  br label %.lr.ph55.i

.lr.ph55.i:                                       ; preds = %.lr.ph55.i, %.lr.ph55.preheader.i
  %indvars.iv65.i = phi i64 [ 0, %.lr.ph55.preheader.i ], [ %indvars.iv.next66.i, %.lr.ph55.i ]
  %9 = getelementptr inbounds ptr, ptr %7, i64 %indvars.iv65.i
  %10 = load ptr, ptr %9, align 8
  tail call void @_ZN2os4freeEPv(ptr noundef %10) #18
  %indvars.iv.next66.i = add nuw nsw i64 %indvars.iv65.i, 1
  %exitcond69.not.i = icmp eq i64 %indvars.iv.next66.i, %wide.trip.count68.i
  br i1 %exitcond69.not.i, label %._crit_edge.i, label %.lr.ph55.i, !llvm.loop !8

._crit_edge.i:                                    ; preds = %.lr.ph55.i, %.preheader49.i
  tail call void @_ZN2os4freeEPv(ptr noundef %7) #18
  br label %_ZN12JvmtiEnvBase26set_native_method_prefixesEiPPc.exit

_ZN12JvmtiEnvBase26set_native_method_prefixesEiPPc.exit: ; preds = %1, %._crit_edge.i
  %11 = getelementptr inbounds i8, ptr %0, i64 376
  %12 = load volatile ptr, ptr %11, align 8
  tail call void asm sideeffect "", "~{memory},~{dirflag},~{fpsr},~{flags}"() #18, !srcloc !9
  %.not = icmp eq ptr %12, null
  br i1 %.not, label %14, label %13

13:                                               ; preds = %_ZN12JvmtiEnvBase26set_native_method_prefixesEiPPc.exit
  tail call void @_ZN11JvmtiTagMap5clearEv(ptr noundef nonnull align 8 dereferenceable(122) %12) #18
  br label %14

14:                                               ; preds = %13, %_ZN12JvmtiEnvBase26set_native_method_prefixesEiPPc.exit
  store volatile i8 1, ptr @_ZN12JvmtiEnvBase15_needs_clean_upE, align 1
  ret void
}